; ModuleID = '27/984.cpp'
source_filename = "27/984.cpp"
target datalayout = "e-m:e-p270:32:32-p271:32:32-p272:64:64-i64:64-f80:128-n8:16:32:64-S128"
target triple = "x86_64-pc-linux-gnu"

%"class.std::ios_base::Init" = type { i8 }
%"class.std::basic_istream" = type { i32 (...)**, i64, %"class.std::basic_ios" }
%"class.std::basic_ios" = type { %"class.std::ios_base", %"class.std::basic_ostream"*, i8, i8, %"class.std::basic_streambuf"*, %"class.std::ctype"*, %"class.std::num_put"*, %"class.std::num_get"* }
%"class.std::ios_base" = type { i32 (...)**, i64, i64, i32, i32, i32, %"struct.std::ios_base::_Callback_list"*, %"struct.std::ios_base::_Words", [8 x %"struct.std::ios_base::_Words"], i32, %"struct.std::ios_base::_Words"*, %"class.std::locale" }
%"struct.std::ios_base::_Callback_list" = type { %"struct.std::ios_base::_Callback_list"*, void (i32, %"class.std::ios_base"*, i32)*, i32, i32 }
%"struct.std::ios_base::_Words" = type { i8*, i64 }
%"class.std::locale" = type { %"class.std::locale::_Impl"* }
%"class.std::locale::_Impl" = type { i32, %"class.std::locale::facet"**, i64, %"class.std::locale::facet"**, i8** }
%"class.std::locale::facet" = type <{ i32 (...)**, i32, [4 x i8] }>
%"class.std::basic_ostream" = type { i32 (...)**, %"class.std::basic_ios" }
%"class.std::basic_streambuf" = type { i32 (...)**, i8*, i8*, i8*, i8*, i8*, i8*, %"class.std::locale" }
%"class.std::ctype" = type <{ %"class.std::locale::facet.base", [4 x i8], %struct.__locale_struct*, i8, [7 x i8], i32*, i32*, i16*, i8, [256 x i8], [256 x i8], i8, [6 x i8] }>
%"class.std::locale::facet.base" = type <{ i32 (...)**, i32 }>
%struct.__locale_struct = type { [13 x %struct.__locale_data*], i16*, i32*, i32*, [13 x i8*] }
%struct.__locale_data = type opaque
%"class.std::num_put" = type { %"class.std::locale::facet.base", [4 x i8] }
%"class.std::num_get" = type { %"class.std::locale::facet.base", [4 x i8] }

@_ZStL8__ioinit = internal global %"class.std::ios_base::Init" zeroinitializer, align 1
@__dso_handle = external hidden global i8
@_ZSt3cin = external dso_local global %"class.std::basic_istream", align 8
@.str = private unnamed_addr constant [17 x i8] c"x1=%.5f;x2=%.5f\0A\00", align 1
@.str.1 = private unnamed_addr constant [12 x i8] c"x1=x2=%.5f\0A\00", align 1
@.str.2 = private unnamed_addr constant [29 x i8] c"x1=%.5f+%.5fi;x2=%.5f-%.5fi\0A\00", align 1
@llvm.global_ctors = appending global [1 x { i32, void ()*, i8* }] [{ i32, void ()*, i8* } { i32 65535, void ()* @_GLOBAL__sub_I_984.cpp, i8* null }]

; Function Attrs: noinline uwtable
define internal void @__cxx_global_var_init() #0 section ".text.startup" {
  call void @_ZNSt8ios_base4InitC1Ev(%"class.std::ios_base::Init"* @_ZStL8__ioinit)
  %1 = call i32 @__cxa_atexit(void (i8*)* bitcast (void (%"class.std::ios_base::Init"*)* @_ZNSt8ios_base4InitD1Ev to void (i8*)*), i8* getelementptr inbounds (%"class.std::ios_base::Init", %"class.std::ios_base::Init"* @_ZStL8__ioinit, i32 0, i32 0), i8* @__dso_handle) #3
  ret void
}

declare dso_local void @_ZNSt8ios_base4InitC1Ev(%"class.std::ios_base::Init"*) unnamed_addr #1

; Function Attrs: nounwind
declare dso_local void @_ZNSt8ios_base4InitD1Ev(%"class.std::ios_base::Init"*) unnamed_addr #2

; Function Attrs: nounwind
declare dso_local i32 @__cxa_atexit(void (i8*)*, i8*, i8*) #3

; Function Attrs: noinline norecurse uwtable
define dso_local i32 @main() #4 {
  %1 = alloca i32, align 4
  %2 = alloca i32, align 4
  %3 = alloca i32, align 4
  %4 = alloca double, align 8
  %5 = alloca double, align 8
  %6 = alloca double, align 8
  %7 = alloca double, align 8
  %8 = alloca double, align 8
  %9 = alloca double, align 8
  %10 = alloca double, align 8
  %11 = alloca double, align 8
  %12 = alloca double, align 8
  %13 = alloca double, align 8
  store i32 0, i32* %1, align 4
  %14 = call dereferenceable(280) %"class.std::basic_istream"* @_ZNSirsERi(%"class.std::basic_istream"* @_ZSt3cin, i32* dereferenceable(4) %2)
  store i32 1, i32* %3, align 4
  br label %15

15:                                               ; preds = %105, %0
  %16 = load i32, i32* %3, align 4
  %17 = load i32, i32* %2, align 4
  %18 = icmp sle i32 %16, %17
  br i1 %18, label %19, label %108

19:                                               ; preds = %15
  %20 = call dereferenceable(280) %"class.std::basic_istream"* @_ZNSirsERd(%"class.std::basic_istream"* @_ZSt3cin, double* dereferenceable(8) %4)
  %21 = call dereferenceable(280) %"class.std::basic_istream"* @_ZNSirsERd(%"class.std::basic_istream"* %20, double* dereferenceable(8) %5)
  %22 = call dereferenceable(280) %"class.std::basic_istream"* @_ZNSirsERd(%"class.std::basic_istream"* %21, double* dereferenceable(8) %6)
  %23 = load double, double* %5, align 8
  %24 = load double, double* %5, align 8
  %25 = fmul double %23, %24
  %26 = load double, double* %4, align 8
  %27 = fmul double 4.000000e+00, %26
  %28 = load double, double* %6, align 8
  %29 = fmul double %27, %28
  %30 = fsub double %25, %29
  store double %30, double* %7, align 8
  %31 = load double, double* %7, align 8
  %32 = fcmp ogt double %31, 0.000000e+00
  br i1 %32, label %33, label %67

33:                                               ; preds = %19
  %34 = load double, double* %5, align 8
  %35 = fneg double %34
  %36 = load double, double* %5, align 8
  %37 = load double, double* %5, align 8
  %38 = fmul double %36, %37
  %39 = load double, double* %4, align 8
  %40 = fmul double 4.000000e+00, %39
  %41 = load double, double* %6, align 8
  %42 = fmul double %40, %41
  %43 = fsub double %38, %42
  %44 = call double @sqrt(double %43) #3
  %45 = fadd double %35, %44
  %46 = load double, double* %4, align 8
  %47 = fmul double 2.000000e+00, %46
  %48 = fdiv double %45, %47
  store double %48, double* %8, align 8
  %49 = load double, double* %5, align 8
  %50 = fneg double %49
  %51 = load double, double* %5, align 8
  %52 = load double, double* %5, align 8
  %53 = fmul double %51, %52
  %54 = load double, double* %4, align 8
  %55 = fmul double 4.000000e+00, %54
  %56 = load double, double* %6, align 8
  %57 = fmul double %55, %56
  %58 = fsub double %53, %57
  %59 = call double @sqrt(double %58) #3
  %60 = fsub double %50, %59
  %61 = load double, double* %4, align 8
  %62 = fmul double 2.000000e+00, %61
  %63 = fdiv double %60, %62
  store double %63, double* %9, align 8
  %64 = load double, double* %8, align 8
  %65 = load double, double* %9, align 8
  %66 = call i32 (i8*, ...) @printf(i8* getelementptr inbounds ([17 x i8], [17 x i8]* @.str, i64 0, i64 0), double %64, double %65)
  br label %104

67:                                               ; preds = %19
  %68 = load double, double* %7, align 8
  %69 = fcmp oeq double %68, 0.000000e+00
  br i1 %69, label %70, label %78

70:                                               ; preds = %67
  %71 = load double, double* %5, align 8
  %72 = fneg double %71
  %73 = load double, double* %4, align 8
  %74 = fmul double 2.000000e+00, %73
  %75 = fdiv double %72, %74
  store double %75, double* %9, align 8
  store double %75, double* %8, align 8
  %76 = load double, double* %8, align 8
  %77 = call i32 (i8*, ...) @printf(i8* getelementptr inbounds ([12 x i8], [12 x i8]* @.str.1, i64 0, i64 0), double %76)
  br label %103

78:                                               ; preds = %67
  %79 = load double, double* %7, align 8
  %80 = call double @llvm.fabs.f64(double %79)
  store double %80, double* %10, align 8
  %81 = load double, double* %10, align 8
  %82 = call double @sqrt(double %81) #3
  %83 = load double, double* %4, align 8
  %84 = fmul double 2.000000e+00, %83
  %85 = fdiv double %82, %84
  store double %85, double* %11, align 8
  %86 = load double, double* %11, align 8
  %87 = call double @llvm.fabs.f64(double %86)
  store double %87, double* %13, align 8
  %88 = load double, double* %5, align 8
  %89 = fcmp une double %88, 0.000000e+00
  br i1 %89, label %90, label %96

90:                                               ; preds = %78
  %91 = load double, double* %5, align 8
  %92 = fneg double %91
  %93 = fdiv double %92, 2.000000e+00
  %94 = load double, double* %4, align 8
  %95 = fdiv double %93, %94
  store double %95, double* %12, align 8
  br label %97

96:                                               ; preds = %78
  store double 0.000000e+00, double* %12, align 8
  br label %97

97:                                               ; preds = %96, %90
  %98 = load double, double* %12, align 8
  %99 = load double, double* %13, align 8
  %100 = load double, double* %12, align 8
  %101 = load double, double* %13, align 8
  %102 = call i32 (i8*, ...) @printf(i8* getelementptr inbounds ([29 x i8], [29 x i8]* @.str.2, i64 0, i64 0), double %98, double %99, double %100, double %101)
  br label %103

103:                                              ; preds = %97, %70
  br label %104

104:                                              ; preds = %103, %33
  br label %105

105:                                              ; preds = %104
  %106 = load i32, i32* %3, align 4
  %107 = add nsw i32 %106, 1
  store i32 %107, i32* %3, align 4
  br label %15

108:                                              ; preds = %15
  ret i32 0
}

declare dso_local dereferenceable(280) %"class.std::basic_istream"* @_ZNSirsERi(%"class.std::basic_istream"*, i32* dereferenceable(4)) #1

declare dso_local dereferenceable(280) %"class.std::basic_istream"* @_ZNSirsERd(%"class.std::basic_istream"*, double* dereferenceable(8)) #1

; Function Attrs: nounwind
declare dso_local double @sqrt(double) #2

declare dso_local i32 @printf(i8*, ...) #1

; Function Attrs: nounwind readnone speculatable willreturn
declare double @llvm.fabs.f64(double) #5

; Function Attrs: noinline uwtable
define internal void @_GLOBAL__sub_I_984.cpp() #0 section ".text.startup" {
  call void @__cxx_global_var_init()
  ret void
}


!llvm.module.flags = !{!0}
!llvm.ident = !{!1}

!0 = !{i32 1, !"wchar_size", i32 4}
!1 = !{!"clang version 10.0.0-4ubuntu1 "}
